target datalayout = "e-m:e-p270:32:32-p271:32:32-p272:64:64-i64:64-i128:128-f80:128-n8:16:32:64-S128"
target triple = "x86_64-pc-linux-gnu"

%"class.std::__cxx11::basic_string" = type { %"struct.std::__cxx11::basic_string<char>::_Alloc_hider", i64, %union.anon }
%"struct.std::__cxx11::basic_string<char>::_Alloc_hider" = type { ptr }
%union.anon = type { i64, [8 x i8] }
%"class.std::__cxx11::basic_stringstream" = type { %"class.std::basic_iostream.base", %"class.std::__cxx11::basic_stringbuf", %"class.std::basic_ios" }
%"class.std::basic_iostream.base" = type { %"class.std::basic_istream.base", %"class.std::basic_ostream.base" }
%"class.std::basic_istream.base" = type { ptr, i64 }
%"class.std::basic_ostream.base" = type { ptr }
%"class.std::__cxx11::basic_stringbuf" = type { %"class.std::basic_streambuf", i32, %"class.std::__cxx11::basic_string" }
%"class.std::basic_streambuf" = type { ptr, ptr, ptr, ptr, ptr, ptr, ptr, %"class.std::locale" }
%"class.std::locale" = type { ptr }
%"class.std::basic_ios" = type { %"class.std::ios_base", ptr, i8, i8, ptr, ptr, ptr, ptr }
%"class.std::ios_base" = type { ptr, i64, i64, i32, i32, i32, ptr, %"struct.std::ios_base::_Words", [8 x %"struct.std::ios_base::_Words"], i32, ptr, %"class.std::locale" }
%"struct.std::ios_base::_Words" = type { ptr, i64 }
%"struct.flatbuffers::python::Version" = type { i16, i16, i16 }

; Function Attrs: inlinehint mustprogress nounwind uwtable
define linkonce_odr dso_local noundef i32 @_ZStorSt13_Ios_OpenmodeS_(i32 noundef %0, i32 noundef %1) #4 comdat {
  %3 = alloca i32, align 4
  %4 = alloca i32, align 4
  store i32 %0, ptr %3, align 4, !tbaa !39
  store i32 %1, ptr %4, align 4, !tbaa !39
  %5 = load i32, ptr %3, align 4, !tbaa !39
  %6 = load i32, ptr %4, align 4, !tbaa !39
  %7 = or i32 %5, %6
  ret i32 %7
}

; Function Attrs: mustprogress uwtable
define dso_local void @_ZN11flatbuffers6python7VersionC2ERKNSt7__cxx1112basic_stringIcSt11char_traitsIcESaIcEEE(ptr noundef nonnull align 2 dereferenceable(6) %0, ptr noundef nonnull align 8 dereferenceable(32) %1) unnamed_addr #3 align 2 personality ptr @__gxx_personality_v0 {
  %3 = alloca ptr, align 8
  %4 = alloca ptr, align 8
  %5 = alloca %"class.std::__cxx11::basic_stringstream", align 8
  %6 = alloca i8, align 1
  %7 = alloca ptr, align 8
  %8 = alloca i32, align 4
  store ptr %0, ptr %3, align 8, !tbaa !32
  store ptr %1, ptr %4, align 8, !tbaa !27
  %9 = load ptr, ptr %3, align 8
  %10 = getelementptr inbounds nuw %"struct.flatbuffers::python::Version", ptr %9, i32 0, i32 0
  store i16 0, ptr %10, align 2, !tbaa !34
  %11 = getelementptr inbounds nuw %"struct.flatbuffers::python::Version", ptr %9, i32 0, i32 1
  store i16 0, ptr %11, align 2, !tbaa !37
  %12 = getelementptr inbounds nuw %"struct.flatbuffers::python::Version", ptr %9, i32 0, i32 2
  store i16 0, ptr %12, align 2, !tbaa !38
  call void @llvm.lifetime.start.p0(i64 392, ptr %5) #5
  %13 = load ptr, ptr %4, align 8, !tbaa !27
  %14 = call noundef i32 @_ZStorSt13_Ios_OpenmodeS_(i32 noundef 16, i32 noundef 8)
  call void @_ZNSt7__cxx1118basic_stringstreamIcSt11char_traitsIcESaIcEEC1ERKNS_12basic_stringIcS2_S3_EESt13_Ios_Openmode(ptr noundef nonnull align 8 dereferenceable(128) %5, ptr noundef nonnull align 8 dereferenceable(32) %13, i32 noundef %14)
  call void @llvm.lifetime.start.p0(i64 1, ptr %6) #5
  %15 = getelementptr inbounds nuw %"struct.flatbuffers::python::Version", ptr %9, i32 0, i32 0
  %16 = invoke noundef nonnull align 8 dereferenceable(16) ptr @_ZNSirsERs(ptr noundef nonnull align 8 dereferenceable(16) %5, ptr noundef nonnull align 2 dereferenceable(2) %15)
          to label %17 unwind label %28

17:                                               ; preds = %2
  %18 = invoke noundef nonnull align 8 dereferenceable(16) ptr @_ZStrsIcSt11char_traitsIcEERSt13basic_istreamIT_T0_ES6_RS3_(ptr noundef nonnull align 8 dereferenceable(16) %16, ptr noundef nonnull align 1 dereferenceable(1) %6)
          to label %19 unwind label %28

19:                                               ; preds = %17
  %20 = getelementptr inbounds nuw %"struct.flatbuffers::python::Version", ptr %9, i32 0, i32 1
  %21 = invoke noundef nonnull align 8 dereferenceable(16) ptr @_ZNSirsERs(ptr noundef nonnull align 8 dereferenceable(16) %18, ptr noundef nonnull align 2 dereferenceable(2) %20)
          to label %22 unwind label %28

22:                                               ; preds = %19
  %23 = invoke noundef nonnull align 8 dereferenceable(16) ptr @_ZStrsIcSt11char_traitsIcEERSt13basic_istreamIT_T0_ES6_RS3_(ptr noundef nonnull align 8 dereferenceable(16) %21, ptr noundef nonnull align 1 dereferenceable(1) %6)
          to label %24 unwind label %28

24:                                               ; preds = %22
  %25 = getelementptr inbounds nuw %"struct.flatbuffers::python::Version", ptr %9, i32 0, i32 2
  %26 = invoke noundef nonnull align 8 dereferenceable(16) ptr @_ZNSirsERs(ptr noundef nonnull align 8 dereferenceable(16) %23, ptr noundef nonnull align 2 dereferenceable(2) %25)
          to label %27 unwind label %28

27:                                               ; preds = %24
  call void @llvm.lifetime.end.p0(i64 1, ptr %6) #5
  call void @_ZNSt7__cxx1118basic_stringstreamIcSt11char_traitsIcESaIcEED1Ev(ptr noundef nonnull align 8 dereferenceable(128) %5) #5
  call void @llvm.lifetime.end.p0(i64 392, ptr %5) #5
  ret void

28:                                               ; preds = %24, %22, %19, %17, %2
  %29 = landingpad { ptr, i32 }
          cleanup
  %30 = extractvalue { ptr, i32 } %29, 0
  store ptr %30, ptr %7, align 8
  %31 = extractvalue { ptr, i32 } %29, 1
  store i32 %31, ptr %8, align 4
  call void @llvm.lifetime.end.p0(i64 1, ptr %6) #5
  call void @_ZNSt7__cxx1118basic_stringstreamIcSt11char_traitsIcESaIcEED1Ev(ptr noundef nonnull align 8 dereferenceable(128) %5) #5
  call void @llvm.lifetime.end.p0(i64 392, ptr %5) #5
  br label %32

32:                                               ; preds = %28
  %33 = load ptr, ptr %7, align 8
  %34 = load i32, ptr %8, align 4
  %35 = insertvalue { ptr, i32 } poison, ptr %33, 0
  %36 = insertvalue { ptr, i32 } %35, i32 %34, 1
  resume { ptr, i32 } %36
}