; Function Attrs: mustprogress uwtable
define dso_local void @_ZN11flatbuffers6python7VersionC2ERKNSt7__cxx1112basic_stringIcSt11char_traitsIcESaIcEEE(ptr noundef nonnull align 2 dereferenceable(6) initializes((0, 6)) %0, ptr noundef nonnull align 8 dereferenceable(32) %1) unnamed_addr #3 align 2 personality ptr @__gxx_personality_v0 {
  %3 = alloca %"class.std::__cxx11::basic_stringstream", align 8
  %4 = alloca i8, align 1
  store i16 0, ptr %0, align 2, !tbaa !14
  %5 = getelementptr inbounds nuw i8, ptr %0, i64 2
  store i16 0, ptr %5, align 2, !tbaa !17
  %6 = getelementptr inbounds nuw i8, ptr %0, i64 4
  store i16 0, ptr %6, align 2, !tbaa !18
  call void @llvm.lifetime.start.p0(i64 392, ptr nonnull %3) #22
  call void @_ZNSt7__cxx1118basic_stringstreamIcSt11char_traitsIcESaIcEEC1ERKNS_12basic_stringIcS2_S3_EESt13_Ios_Openmode(ptr noundef nonnull align 8 dereferenceable(128) %3, ptr noundef nonnull align 8 dereferenceable(32) %1, i32 noundef 24)
  call void @llvm.lifetime.start.p0(i64 1, ptr nonnull %4) #22
  %7 = invoke noundef nonnull align 8 dereferenceable(16) ptr @_ZNSirsERs(ptr noundef nonnull align 8 dereferenceable(16) %3, ptr noundef nonnull align 2 dereferenceable(2) %0)
          to label %8 unwind label %42

8:                                                ; preds = %2
  %9 = invoke noundef nonnull align 8 dereferenceable(16) ptr @_ZStrsIcSt11char_traitsIcEERSt13basic_istreamIT_T0_ES6_RS3_(ptr noundef nonnull align 8 dereferenceable(16) %7, ptr noundef nonnull align 1 dereferenceable(1) %4)
          to label %10 unwind label %42

10:                                               ; preds = %8
  %11 = invoke noundef nonnull align 8 dereferenceable(16) ptr @_ZNSirsERs(ptr noundef nonnull align 8 dereferenceable(16) %9, ptr noundef nonnull align 2 dereferenceable(2) %5)
          to label %12 unwind label %42

12:                                               ; preds = %10
  %13 = invoke noundef nonnull align 8 dereferenceable(16) ptr @_ZStrsIcSt11char_traitsIcEERSt13basic_istreamIT_T0_ES6_RS3_(ptr noundef nonnull align 8 dereferenceable(16) %11, ptr noundef nonnull align 1 dereferenceable(1) %4)
          to label %14 unwind label %42

14:                                               ; preds = %12
  %15 = invoke noundef nonnull align 8 dereferenceable(16) ptr @_ZNSirsERs(ptr noundef nonnull align 8 dereferenceable(16) %13, ptr noundef nonnull align 2 dereferenceable(2) %6)
          to label %16 unwind label %42

16:                                               ; preds = %14
  call void @llvm.lifetime.end.p0(i64 1, ptr nonnull %4) #22
  %17 = load ptr, ptr @_ZTTNSt7__cxx1118basic_stringstreamIcSt11char_traitsIcESaIcEEE, align 8
  store ptr %17, ptr %3, align 8, !tbaa !19
  %18 = load ptr, ptr getelementptr inbounds nuw (i8, ptr @_ZTTNSt7__cxx1118basic_stringstreamIcSt11char_traitsIcESaIcEEE, i64 64), align 8
  %19 = getelementptr i8, ptr %17, i64 -24
  %20 = load i64, ptr %19, align 8
  %21 = getelementptr inbounds i8, ptr %3, i64 %20
  store ptr %18, ptr %21, align 8, !tbaa !19
  %22 = load ptr, ptr getelementptr inbounds nuw (i8, ptr @_ZTTNSt7__cxx1118basic_stringstreamIcSt11char_traitsIcESaIcEEE, i64 72), align 8
  %23 = getelementptr inbounds nuw i8, ptr %3, i64 16
  store ptr %22, ptr %23, align 8, !tbaa !19
  %24 = getelementptr inbounds nuw i8, ptr %3, i64 24
  store ptr getelementptr inbounds nuw inrange(-16, 112) (i8, ptr @_ZTVNSt7__cxx1115basic_stringbufIcSt11char_traitsIcESaIcEEE, i64 16), ptr %24, align 8, !tbaa !19
  %25 = getelementptr inbounds nuw i8, ptr %3, i64 96
  %26 = load ptr, ptr %25, align 8, !tbaa !4
  %27 = getelementptr inbounds nuw i8, ptr %3, i64 112
  %28 = icmp eq ptr %26, %27
  br i1 %28, label %_ZNKSt7__cxx1112basic_stringIcSt11char_traitsIcESaIcEE11_M_is_localEv.exit.thread.i.i.i.i.i, label %_ZNKSt7__cxx1112basic_stringIcSt11char_traitsIcESaIcEE11_M_is_localEv.exit.i.i.i.i.i

_ZNKSt7__cxx1112basic_stringIcSt11char_traitsIcESaIcEE11_M_is_localEv.exit.thread.i.i.i.i.i: ; preds = %16
  %29 = getelementptr inbounds nuw i8, ptr %3, i64 104
  %30 = load i64, ptr %29, align 8, !tbaa !12
  %31 = icmp ult i64 %30, 16
  call void @llvm.assume(i1 %31)
  br label %_ZNSt7__cxx1118basic_stringstreamIcSt11char_traitsIcESaIcEED1Ev.exit

_ZNKSt7__cxx1112basic_stringIcSt11char_traitsIcESaIcEE11_M_is_localEv.exit.i.i.i.i.i: ; preds = %16
  %32 = load i64, ptr %27, align 8, !tbaa !13
  %33 = add i64 %32, 1
  call void @_ZdlPvm(ptr noundef %26, i64 noundef %33) #21
  br label %_ZNSt7__cxx1118basic_stringstreamIcSt11char_traitsIcESaIcEED1Ev.exit

_ZNSt7__cxx1118basic_stringstreamIcSt11char_traitsIcESaIcEED1Ev.exit: ; preds = %_ZNKSt7__cxx1112basic_stringIcSt11char_traitsIcESaIcEE11_M_is_localEv.exit.thread.i.i.i.i.i, %_ZNKSt7__cxx1112basic_stringIcSt11char_traitsIcESaIcEE11_M_is_localEv.exit.i.i.i.i.i
  store ptr getelementptr inbounds nuw inrange(-16, 112) (i8, ptr @_ZTVSt15basic_streambufIcSt11char_traitsIcEE, i64 16), ptr %24, align 8, !tbaa !19
  %34 = getelementptr inbounds nuw i8, ptr %3, i64 80
  call void @_ZNSt6localeD1Ev(ptr noundef nonnull align 8 dereferenceable(8) %34) #22
  %35 = load ptr, ptr getelementptr inbounds nuw (i8, ptr @_ZTTNSt7__cxx1118basic_stringstreamIcSt11char_traitsIcESaIcEEE, i64 16), align 8
  store ptr %35, ptr %3, align 8, !tbaa !19
  %36 = load ptr, ptr getelementptr inbounds nuw (i8, ptr @_ZTTNSt7__cxx1118basic_stringstreamIcSt11char_traitsIcESaIcEEE, i64 24), align 8
  %37 = getelementptr i8, ptr %35, i64 -24
  %38 = load i64, ptr %37, align 8
  %39 = getelementptr inbounds i8, ptr %3, i64 %38
  store ptr %36, ptr %39, align 8, !tbaa !19
  %40 = getelementptr inbounds nuw i8, ptr %3, i64 8
  store i64 0, ptr %40, align 8, !tbaa !21
  %41 = getelementptr inbounds nuw i8, ptr %3, i64 128
  call void @_ZNSt8ios_baseD2Ev(ptr noundef nonnull align 8 dereferenceable(264) %41) #22
  call void @llvm.lifetime.end.p0(i64 392, ptr nonnull %3) #22
  ret void

42:                                               ; preds = %14, %12, %10, %8, %2
  %43 = landingpad { ptr, i32 }
          cleanup
  call void @llvm.lifetime.end.p0(i64 1, ptr nonnull %4) #22
  call void @_ZNSt7__cxx1118basic_stringstreamIcSt11char_traitsIcESaIcEED1Ev(ptr noundef nonnull align 8 dereferenceable(128) %3) #22
  call void @llvm.lifetime.end.p0(i64 392, ptr nonnull %3) #22
  resume { ptr, i32 } %43
}